; Function Attrs: mustprogress uwtable
define noundef i32 @u_formatMessageWithError_77(ptr noundef %0, ptr noundef %1, i32 noundef %2, ptr noundef %3, i32 noundef %4, ptr noundef %5, ptr noundef %6, ...) local_unnamed_addr #1 {
  %8 = alloca [1 x %struct.__va_list_tag], align 16
  call void @llvm.lifetime.start.p0(i64 24, ptr nonnull %8) #10
  call void @llvm.va_start.p0(ptr nonnull %8)
  %9 = call ptr @umsg_open_77(ptr noundef %1, i32 noundef %2, ptr noundef %0, ptr noundef %5, ptr noundef %6)
  %10 = call i32 @umsg_vformat_77(ptr noundef %9, ptr noundef %3, i32 noundef %4, ptr noundef nonnull %8, ptr noundef %6)
  %11 = icmp eq ptr %9, null
  br i1 %11, label %u_vformatMessageWithError_77.exit, label %12

12:                                               ; preds = %7
  %13 = load ptr, ptr %9, align 8, !tbaa !34
  %14 = getelementptr inbounds nuw i8, ptr %13, i64 8
  %15 = load ptr, ptr %14, align 8
  call void %15(ptr noundef nonnull align 8 dereferenceable(512) %9) #10
  br label %u_vformatMessageWithError_77.exit

u_vformatMessageWithError_77.exit:                ; preds = %7, %12
  call void @llvm.va_end.p0(ptr nonnull %8)
  call void @llvm.lifetime.end.p0(i64 24, ptr nonnull %8) #10
  ret i32 %10
}